ccopy_reg
_reconstructor
p0
(csklearn.pipeline
Pipeline
p1
c__builtin__
object
p2
Ntp3
Rp4
(dp5
S'_sklearn_version'
p6
S'0.18.1'
p7
sS'steps'
p8
(lp9
(S'reduce_dim'
p10
g0
(csklearn.decomposition.pca
PCA
p11
g2
Ntp12
Rp13
(dp14
S'svd_solver'
p15
S'auto'
p16
sS'iterated_power'
p17
g16
sS'random_state'
p18
Nsg6
g7
sS'whiten'
p19
I00
sS'tol'
p20
F0.0
sS'copy'
p21
I01
sS'n_components'
p22
I8
sbtp23
a(S'clf'
p24
g0
(csklearn.naive_bayes
GaussianNB
p25
g2
Ntp26
Rp27
(dp28
S'priors'
p29
Nsg6
g7
sbtp30
asb.