ccopy_reg
_reconstructor
p0
(csklearn.pipeline
Pipeline
p1
c__builtin__
object
p2
Ntp3
Rp4
(dp5
S'_sklearn_version'
p6
S'0.18.1'
p7
sS'steps'
p8
(lp9
(S'minabser'
p10
g0
(csklearn.preprocessing.data
MaxAbsScaler
p11
g2
Ntp12
Rp13
(dp14
S'copy'
p15
I01
sg6
g7
sbtp16
a(S'reduce_dim'
p17
g0
(csklearn.feature_selection.univariate_selection
SelectKBest
p18
g2
Ntp19
Rp20
(dp21
S'k'
p22
I8
sg6
g7
sS'score_func'
p23
csklearn.feature_selection.univariate_selection
f_classif
p24
sbtp25
a(S'clf'
p26
g0
(csklearn.neighbors.classification
KNeighborsClassifier
p27
g2
Ntp28
Rp29
(dp30
S'n_neighbors'
p31
I3
sS'n_jobs'
p32
I1
sS'algorithm'
p33
S'auto'
p34
sg6
g7
sS'metric'
p35
S'minkowski'
p36
sS'metric_params'
p37
NsS'p'
p38
I2
sS'radius'
p39
NsS'leaf_size'
p40
I10
sS'_fit_method'
p41
NsS'weights'
p42
S'distance'
p43
sS'_tree'
p44
NsS'_fit_X'
p45
Nsbtp46
asb.