(lp0
S'poi'
p1
aS'bonus'
p2
aS'bonus_mean_ratio'
p3
aS'bonus_median_ratio'
p4
aS'deferral_payments'
p5
aS'deferral_payments_mean_ratio'
p6
aS'deferral_payments_median_ratio'
p7
aS'deferred_income'
p8
aS'deferred_income_mean_ratio'
p9
aS'deferred_income_median_ratio'
p10
aS'director_fees'
p11
aS'director_fees_mean_ratio'
p12
aS'director_fees_median_ratio'
p13
aS'exercised_stock_options'
p14
aS'exercised_stock_options_mean_ratio'
p15
aS'exercised_stock_options_median_ratio'
p16
aS'expenses'
p17
aS'expenses_mean_ratio'
p18
aS'expenses_median_ratio'
p19
aS'from_messages'
p20
aS'from_messages_mean_ratio'
p21
aS'from_messages_median_ratio'
p22
aS'from_poi_message_ratio'
p23
aS'from_poi_to_this_person'
p24
aS'from_poi_to_this_person_mean_ratio'
p25
aS'from_poi_to_this_person_median_ratio'
p26
aS'from_this_person_to_poi'
p27
aS'from_this_person_to_poi_mean_ratio'
p28
aS'loan_advances'
p29
aS'loan_advances_mean_ratio'
p30
aS'loan_advances_median_ratio'
p31
aS'long_term_incentive'
p32
aS'long_term_incentive_mean_ratio'
p33
aS'long_term_incentive_median_ratio'
p34
aS'other'
p35
aS'other_mean_ratio'
p36
aS'other_median_ratio'
p37
aS'restricted_stock'
p38
aS'restricted_stock_deferred'
p39
aS'restricted_stock_deferred_mean_ratio'
p40
aS'restricted_stock_deferred_median_ratio'
p41
aS'restricted_stock_mean_ratio'
p42
aS'restricted_stock_median_ratio'
p43
aS'salary'
p44
aS'salary_mean_ratio'
p45
aS'salary_median_ratio'
p46
aS'shared_receipt_with_poi'
p47
aS'shared_receipt_with_poi_mean_ratio'
p48
aS'shared_receipt_with_poi_median_ratio'
p49
aS'to_messages'
p50
aS'to_messages_mean_ratio'
p51
aS'to_messages_median_ratio'
p52
aS'to_poi_message_ratio'
p53
aS'total_payments'
p54
aS'total_payments_mean_ratio'
p55
aS'total_payments_median_ratio'
p56
aS'total_stock_value'
p57
aS'total_stock_value_mean_ratio'
p58
aS'total_stock_value_median_ratio'
p59
a.